; Function Attrs: nounwind uwtable
define hidden ptr @SDL_GetKeyboardNameForID_REAL(i32 noundef %0) local_unnamed_addr #0 {
  %2 = load i32, ptr @SDL_keyboard_count, align 4
  %.not9.i = icmp sgt i32 %2, 0
  br i1 %.not9.i, label %.lr.ph.i, label %SDL_GetKeyboardIndex.exit.thread

.lr.ph.i:                                         ; preds = %1
  %3 = load ptr, ptr @SDL_keyboards, align 8
  %wide.trip.count.i = zext nneg i32 %2 to i64
  br label %4

4:                                                ; preds = %8, %.lr.ph.i
  %indvars.iv.i = phi i64 [ 0, %.lr.ph.i ], [ %indvars.iv.next.i, %8 ]
  %5 = getelementptr inbounds nuw %struct.SDL_KeyboardInstance, ptr %3, i64 %indvars.iv.i
  %6 = load i32, ptr %5, align 8
  %7 = icmp eq i32 %0, %6
  br i1 %7, label %SDL_GetKeyboardIndex.exit, label %8

8:                                                ; preds = %4
  %indvars.iv.next.i = add nuw nsw i64 %indvars.iv.i, 1
  %exitcond.not.i = icmp eq i64 %indvars.iv.next.i, %wide.trip.count.i
  br i1 %exitcond.not.i, label %SDL_GetKeyboardIndex.exit.thread, label %4, !llvm.loop !3

SDL_GetKeyboardIndex.exit.thread:                 ; preds = %8, %1
  %9 = tail call zeroext i1 (ptr, ...) @SDL_SetError_REAL(ptr noundef nonnull @.str.2, i32 noundef %0) #13
  br label %14

SDL_GetKeyboardIndex.exit:                        ; preds = %4
  %10 = and i64 %indvars.iv.i, 4294967295
  %11 = getelementptr inbounds nuw %struct.SDL_KeyboardInstance, ptr %3, i64 %10, i32 1
  %12 = load ptr, ptr %11, align 8
  %13 = tail call ptr @SDL_GetPersistentString(ptr noundef %12) #13
  br label %14

14:                                               ; preds = %SDL_GetKeyboardIndex.exit, %SDL_GetKeyboardIndex.exit.thread
  %.0 = phi ptr [ null, %SDL_GetKeyboardIndex.exit.thread ], [ %13, %SDL_GetKeyboardIndex.exit ]
  ret ptr %.0
}